; ModuleID = '53/1711.c'
source_filename = "53/1711.c"
target datalayout = "e-m:e-p270:32:32-p271:32:32-p272:64:64-i64:64-f80:128-n8:16:32:64-S128"
target triple = "x86_64-pc-linux-gnu"

@.str = private unnamed_addr constant [3 x i8] c"%d\00", align 1
@.str.1 = private unnamed_addr constant [4 x i8] c",%d\00", align 1

; Function Attrs: noinline nounwind uwtable
define dso_local i32 @main() #0 {
  %1 = alloca i32, align 4
  %2 = alloca i32, align 4
  %3 = alloca [305 x i32], align 16
  %4 = alloca i32, align 4
  %5 = alloca i32, align 4
  %6 = alloca [305 x i32], align 16
  %7 = alloca i32, align 4
  store i32 0, i32* %1, align 4
  %8 = bitcast [305 x i32]* %3 to i8*
  call void @llvm.memset.p0i8.i64(i8* align 16 %8, i8 0, i64 1220, i1 false)
  store i32 0, i32* %4, align 4
  %9 = bitcast [305 x i32]* %6 to i8*
  call void @llvm.memset.p0i8.i64(i8* align 16 %9, i8 0, i64 1220, i1 false)
  store i32 0, i32* %7, align 4
  %10 = call i32 (i8*, ...) @__isoc99_scanf(i8* getelementptr inbounds ([3 x i8], [3 x i8]* @.str, i64 0, i64 0), i32* %2)
  store i32 0, i32* %4, align 4
  br label %11

11:                                               ; preds = %20, %0
  %12 = load i32, i32* %4, align 4
  %13 = load i32, i32* %2, align 4
  %14 = icmp slt i32 %12, %13
  br i1 %14, label %15, label %23

15:                                               ; preds = %11
  %16 = load i32, i32* %4, align 4
  %17 = sext i32 %16 to i64
  %18 = getelementptr inbounds [305 x i32], [305 x i32]* %3, i64 0, i64 %17
  %19 = call i32 (i8*, ...) @__isoc99_scanf(i8* getelementptr inbounds ([3 x i8], [3 x i8]* @.str, i64 0, i64 0), i32* %18)
  br label %20

20:                                               ; preds = %15
  %21 = load i32, i32* %4, align 4
  %22 = add nsw i32 %21, 1
  store i32 %22, i32* %4, align 4
  br label %11

23:                                               ; preds = %11
  store i32 0, i32* %4, align 4
  store i32 0, i32* %4, align 4
  br label %24

24:                                               ; preds = %78, %23
  %25 = load i32, i32* %4, align 4
  %26 = load i32, i32* %2, align 4
  %27 = icmp slt i32 %25, %26
  br i1 %27, label %28, label %81

28:                                               ; preds = %24
  %29 = load i32, i32* %4, align 4
  %30 = sext i32 %29 to i64
  %31 = getelementptr inbounds [305 x i32], [305 x i32]* %6, i64 0, i64 %30
  %32 = load i32, i32* %31, align 4
  %33 = icmp eq i32 %32, 0
  br i1 %33, label %34, label %52

34:                                               ; preds = %28
  %35 = load i32, i32* %7, align 4
  %36 = add nsw i32 %35, 1
  store i32 %36, i32* %7, align 4
  %37 = load i32, i32* %7, align 4
  %38 = icmp eq i32 %37, 1
  br i1 %38, label %39, label %45

39:                                               ; preds = %34
  %40 = load i32, i32* %4, align 4
  %41 = sext i32 %40 to i64
  %42 = getelementptr inbounds [305 x i32], [305 x i32]* %3, i64 0, i64 %41
  %43 = load i32, i32* %42, align 4
  %44 = call i32 (i8*, ...) @printf(i8* getelementptr inbounds ([3 x i8], [3 x i8]* @.str, i64 0, i64 0), i32 %43)
  br label %51

45:                                               ; preds = %34
  %46 = load i32, i32* %4, align 4
  %47 = sext i32 %46 to i64
  %48 = getelementptr inbounds [305 x i32], [305 x i32]* %3, i64 0, i64 %47
  %49 = load i32, i32* %48, align 4
  %50 = call i32 (i8*, ...) @printf(i8* getelementptr inbounds ([4 x i8], [4 x i8]* @.str.1, i64 0, i64 0), i32 %49)
  br label %51

51:                                               ; preds = %45, %39
  br label %52

52:                                               ; preds = %51, %28
  %53 = load i32, i32* %4, align 4
  store i32 %53, i32* %5, align 4
  %54 = load i32, i32* %4, align 4
  store i32 %54, i32* %5, align 4
  br label %55

55:                                               ; preds = %74, %52
  %56 = load i32, i32* %5, align 4
  %57 = load i32, i32* %2, align 4
  %58 = icmp slt i32 %56, %57
  br i1 %58, label %59, label %77

59:                                               ; preds = %55
  %60 = load i32, i32* %4, align 4
  %61 = sext i32 %60 to i64
  %62 = getelementptr inbounds [305 x i32], [305 x i32]* %3, i64 0, i64 %61
  %63 = load i32, i32* %62, align 4
  %64 = load i32, i32* %5, align 4
  %65 = sext i32 %64 to i64
  %66 = getelementptr inbounds [305 x i32], [305 x i32]* %3, i64 0, i64 %65
  %67 = load i32, i32* %66, align 4
  %68 = icmp eq i32 %63, %67
  br i1 %68, label %69, label %73

69:                                               ; preds = %59
  %70 = load i32, i32* %5, align 4
  %71 = sext i32 %70 to i64
  %72 = getelementptr inbounds [305 x i32], [305 x i32]* %6, i64 0, i64 %71
  store i32 1, i32* %72, align 4
  br label %73

73:                                               ; preds = %69, %59
  br label %74

74:                                               ; preds = %73
  %75 = load i32, i32* %5, align 4
  %76 = add nsw i32 %75, 1
  store i32 %76, i32* %5, align 4
  br label %55

77:                                               ; preds = %55
  br label %78

78:                                               ; preds = %77
  %79 = load i32, i32* %4, align 4
  %80 = add nsw i32 %79, 1
  store i32 %80, i32* %4, align 4
  br label %24

81:                                               ; preds = %24
  ret i32 0
}

; Function Attrs: argmemonly nounwind willreturn
declare void @llvm.memset.p0i8.i64(i8* nocapture writeonly, i8, i64, i1 immarg) #1

declare dso_local i32 @__isoc99_scanf(i8*, ...) #2

declare dso_local i32 @printf(i8*, ...) #2


!llvm.module.flags = !{!0}
!llvm.ident = !{!1}

!0 = !{i32 1, !"wchar_size", i32 4}
!1 = !{!"clang version 10.0.0-4ubuntu1 "}
